target datalayout = "e-m:e-p270:32:32-p271:32:32-p272:64:64-i64:64-i128:128-f80:128-n8:16:32:64-S128"
target triple = "x86_64-pc-linux-gnu"

%"class.grpc_core::RefCount" = type { %"struct.std::atomic" }
%"struct.std::atomic" = type { %"struct.std::__atomic_base" }
%"struct.std::__atomic_base" = type { i64 }
%"class.grpc_core::Orphanable" = type { ptr }
%"class.grpc_core::InternallyRefCounted.394" = type { %"class.grpc_core::Orphanable", %"class.grpc_core::RefCount" }
%"class.grpc_core::RefCountedPtr.436" = type { ptr }
%class.anon.438 = type { %"class.grpc_core::RefCountedPtr.436" }

; Function Attrs: alwaysinline mustprogress nounwind uwtable
define linkonce_odr noundef i64 @_ZNSt13__atomic_baseIlE9fetch_subElSt12memory_order(ptr noundef nonnull align 8 dereferenceable(8) %0, i64 noundef %1, i32 noundef %2) #11 comdat align 2 {
  %4 = alloca ptr, align 8
  %5 = alloca i64, align 8
  %6 = alloca i32, align 4
  %7 = alloca i64, align 8
  %8 = alloca i64, align 8
  store ptr %0, ptr %4, align 8, !tbaa !175
  store i64 %1, ptr %5, align 8, !tbaa !8
  store i32 %2, ptr %6, align 4, !tbaa !184
  %9 = load ptr, ptr %4, align 8
  %10 = getelementptr inbounds nuw %"struct.std::__atomic_base", ptr %9, i32 0, i32 0
  %11 = load i32, ptr %6, align 4, !tbaa !184
  %12 = load i64, ptr %5, align 8, !tbaa !8
  store i64 %12, ptr %7, align 8, !tbaa !8
  switch i32 %11, label %13 [
    i32 1, label %16
    i32 2, label %16
    i32 3, label %19
    i32 4, label %22
    i32 5, label %25
  ]

13:                                               ; preds = %3
  %14 = load i64, ptr %7, align 8
  %15 = atomicrmw sub ptr %10, i64 %14 monotonic, align 8
  store i64 %15, ptr %8, align 8
  br label %28

16:                                               ; preds = %3, %3
  %17 = load i64, ptr %7, align 8
  %18 = atomicrmw sub ptr %10, i64 %17 acquire, align 8
  store i64 %18, ptr %8, align 8
  br label %28

19:                                               ; preds = %3
  %20 = load i64, ptr %7, align 8
  %21 = atomicrmw sub ptr %10, i64 %20 release, align 8
  store i64 %21, ptr %8, align 8
  br label %28

22:                                               ; preds = %3
  %23 = load i64, ptr %7, align 8
  %24 = atomicrmw sub ptr %10, i64 %23 acq_rel, align 8
  store i64 %24, ptr %8, align 8
  br label %28

25:                                               ; preds = %3
  %26 = load i64, ptr %7, align 8
  %27 = atomicrmw sub ptr %10, i64 %26 seq_cst, align 8
  store i64 %27, ptr %8, align 8
  br label %28

28:                                               ; preds = %25, %22, %19, %16, %13
  %29 = load i64, ptr %8, align 8, !tbaa !8
  ret i64 %29
}

; Function Attrs: mustprogress nounwind uwtable
define internal void @_ZNK9grpc_core11UnrefDeleteclINS_12_GLOBAL__N_19PickFirst14SubchannelListEEEvPT_(ptr noundef nonnull align 1 dereferenceable(1) %0, ptr noundef %1) #6 align 2 {
  %3 = alloca ptr, align 8
  %4 = alloca ptr, align 8
  store ptr %0, ptr %3, align 8, !tbaa !182
  store ptr %1, ptr %4, align 8, !tbaa !1219
  %5 = load ptr, ptr %4, align 8, !tbaa !1219
  %6 = icmp eq ptr %5, null
  br i1 %6, label %8, label %7

7:                                                ; preds = %2
  call void @_ZN9grpc_core12_GLOBAL__N_19PickFirst14SubchannelListD2Ev(ptr noundef nonnull align 8 dereferenceable(152) %5) #3
  call void @_ZdlPvm(ptr noundef %5, i64 noundef 152) #32
  br label %8

8:                                                ; preds = %7, %2
  ret void
}

; Function Attrs: mustprogress nounwind uwtable
define linkonce_odr noundef zeroext i1 @_ZN9grpc_core8RefCount5UnrefEv(ptr noundef nonnull align 8 dereferenceable(8) %0) #6 comdat align 2 {
  %2 = alloca ptr, align 8
  %3 = alloca i64, align 8
  store ptr %0, ptr %2, align 8, !tbaa !171
  %4 = load ptr, ptr %2, align 8
  call void @llvm.lifetime.start.p0(i64 8, ptr %3) #3
  %5 = getelementptr inbounds nuw %"class.grpc_core::RefCount", ptr %4, i32 0, i32 0
  %6 = call noundef i64 @_ZNSt13__atomic_baseIlE9fetch_subElSt12memory_order(ptr noundef nonnull align 8 dereferenceable(8) %5, i64 noundef 1, i32 noundef 4) #3
  store i64 %6, ptr %3, align 8, !tbaa !8
  %7 = load i64, ptr %3, align 8, !tbaa !8
  %8 = icmp eq i64 %7, 1
  call void @llvm.lifetime.end.p0(i64 8, ptr %3) #3
  ret i1 %8
}

; Function Attrs: noinline noreturn nounwind uwtable
define linkonce_odr hidden void @__clang_call_terminate(ptr noundef %0) #10 comdat {
  %2 = call ptr @__cxa_begin_catch(ptr %0) #3
  call void @_ZSt9terminatev() #29
  unreachable
}

; Function Attrs: mustprogress uwtable
define internal void @_ZN9grpc_core20InternallyRefCountedINS_12_GLOBAL__N_19PickFirst14SubchannelListENS_11UnrefDeleteEE5UnrefEv(ptr noundef nonnull align 8 dereferenceable(16) %0) #5 align 2 {
  %2 = alloca ptr, align 8
  store ptr %0, ptr %2, align 8, !tbaa !1266
  %3 = load ptr, ptr %2, align 8
  %4 = getelementptr inbounds nuw %"class.grpc_core::InternallyRefCounted.394", ptr %3, i32 0, i32 1
  %5 = call noundef zeroext i1 @_ZN9grpc_core8RefCount5UnrefEv(ptr noundef nonnull align 8 dereferenceable(8) %4)
  %6 = zext i1 %5 to i64
  %7 = call i64 @llvm.expect.i64(i64 %6, i64 0)
  %8 = icmp ne i64 %7, 0
  br i1 %8, label %9, label %10

9:                                                ; preds = %1
  call void @_ZNK9grpc_core11UnrefDeleteclINS_12_GLOBAL__N_19PickFirst14SubchannelListEEEvPT_(ptr noundef nonnull align 1 dereferenceable(1) %3, ptr noundef %3)
  br label %10

10:                                               ; preds = %9, %1
  ret void
}

; Function Attrs: mustprogress nounwind uwtable
define internal void @_ZN9grpc_core13RefCountedPtrINS_12_GLOBAL__N_19PickFirst14SubchannelListEED2Ev(ptr noundef nonnull align 8 dereferenceable(8) %0) unnamed_addr #6 align 2 personality ptr @__gxx_personality_v0 {
  %2 = alloca ptr, align 8
  store ptr %0, ptr %2, align 8, !tbaa !1365
  %3 = load ptr, ptr %2, align 8
  %4 = getelementptr inbounds nuw %"class.grpc_core::RefCountedPtr.436", ptr %3, i32 0, i32 0
  %5 = load ptr, ptr %4, align 8, !tbaa !1367
  %6 = icmp ne ptr %5, null
  br i1 %6, label %7, label %11

7:                                                ; preds = %1
  %8 = getelementptr inbounds nuw %"class.grpc_core::RefCountedPtr.436", ptr %3, i32 0, i32 0
  %9 = load ptr, ptr %8, align 8, !tbaa !1367
  invoke void @_ZN9grpc_core20InternallyRefCountedINS_12_GLOBAL__N_19PickFirst14SubchannelListENS_11UnrefDeleteEE5UnrefEv(ptr noundef nonnull align 8 dereferenceable(16) %9)
          to label %10 unwind label %12

10:                                               ; preds = %7
  br label %11

11:                                               ; preds = %10, %1
  ret void

12:                                               ; preds = %7
  %13 = landingpad { ptr, i32 }
          catch ptr null
  %14 = extractvalue { ptr, i32 } %13, 0
  call void @__clang_call_terminate(ptr %14) #29
  unreachable
}

; Function Attrs: mustprogress nounwind uwtable
define internal void @_ZN9grpc_core13RefCountedPtrINS_12_GLOBAL__N_19PickFirst14SubchannelListEEC2EOS4_(ptr noundef nonnull align 8 dereferenceable(8) %0, ptr noundef nonnull align 8 dereferenceable(8) %1) unnamed_addr #6 align 2 {
  %3 = alloca ptr, align 8
  %4 = alloca ptr, align 8
  store ptr %0, ptr %3, align 8, !tbaa !1365
  store ptr %1, ptr %4, align 8, !tbaa !1365
  %5 = load ptr, ptr %3, align 8
  %6 = getelementptr inbounds nuw %"class.grpc_core::RefCountedPtr.436", ptr %5, i32 0, i32 0
  store ptr null, ptr %6, align 8, !tbaa !1367
  %7 = load ptr, ptr %4, align 8, !tbaa !1365
  %8 = getelementptr inbounds nuw %"class.grpc_core::RefCountedPtr.436", ptr %7, i32 0, i32 0
  %9 = load ptr, ptr %8, align 8, !tbaa !1367
  %10 = getelementptr inbounds nuw %"class.grpc_core::RefCountedPtr.436", ptr %5, i32 0, i32 0
  store ptr %9, ptr %10, align 8, !tbaa !1367
  %11 = load ptr, ptr %4, align 8, !tbaa !1365
  %12 = getelementptr inbounds nuw %"class.grpc_core::RefCountedPtr.436", ptr %11, i32 0, i32 0
  store ptr null, ptr %12, align 8, !tbaa !1367
  ret void
}

; Function Attrs: mustprogress nounwind uwtable
define internal noundef ptr @"_ZSt7launderIZZN9grpc_core12_GLOBAL__N_19PickFirst14SubchannelList14SubchannelData26RequestConnectionWithTimerEvEN3$_0clEvEUlvE_EPT_S8_"(ptr noundef %0) #6 {
  %2 = alloca ptr, align 8
  store ptr %0, ptr %2, align 8, !tbaa !53
  %3 = load ptr, ptr %2, align 8, !tbaa !53
  ret ptr %3
}

; Function Attrs: inlinehint mustprogress nounwind uwtable
define internal void @"_ZZZN9grpc_core12_GLOBAL__N_19PickFirst14SubchannelList14SubchannelData26RequestConnectionWithTimerEvEN3$_0clEvENUlvE_D2Ev"(ptr noundef nonnull align 8 dereferenceable(8) %0) unnamed_addr #13 align 2 {
  %2 = alloca ptr, align 8
  store ptr %0, ptr %2, align 8, !tbaa !53
  %3 = load ptr, ptr %2, align 8
  %4 = getelementptr inbounds nuw %class.anon.438, ptr %3, i32 0, i32 0
  call void @_ZN9grpc_core13RefCountedPtrINS_12_GLOBAL__N_19PickFirst14SubchannelListEED2Ev(ptr noundef nonnull align 8 dereferenceable(8) %4) #3
  ret void
}

; Function Attrs: inlinehint mustprogress nounwind uwtable
define internal void @"_ZZZN9grpc_core12_GLOBAL__N_19PickFirst14SubchannelList14SubchannelData26RequestConnectionWithTimerEvEN3$_0clEvENUlvE_C2EOS5_"(ptr noundef nonnull align 8 dereferenceable(8) %0, ptr noundef nonnull align 8 dereferenceable(8) %1) unnamed_addr #13 align 2 {
  %3 = alloca ptr, align 8
  %4 = alloca ptr, align 8
  store ptr %0, ptr %3, align 8, !tbaa !53
  store ptr %1, ptr %4, align 8, !tbaa !53
  %5 = load ptr, ptr %3, align 8
  %6 = getelementptr inbounds nuw %class.anon.438, ptr %5, i32 0, i32 0
  %7 = load ptr, ptr %4, align 8, !tbaa !53
  %8 = getelementptr inbounds nuw %class.anon.438, ptr %7, i32 0, i32 0
  call void @_ZN9grpc_core13RefCountedPtrINS_12_GLOBAL__N_19PickFirst14SubchannelListEEC2EOS4_(ptr noundef nonnull align 8 dereferenceable(8) %6, ptr noundef nonnull align 8 dereferenceable(8) %8) #3
  ret void
}

; Function Attrs: mustprogress nounwind uwtable
define internal noundef nonnull align 8 dereferenceable(8) ptr @"_ZN4absl12lts_2024072222internal_any_invocable20ObjectInLocalStorageIZZN9grpc_core12_GLOBAL__N_19PickFirst14SubchannelList14SubchannelData26RequestConnectionWithTimerEvEN3$_0clEvEUlvE_EERT_PNS1_15TypeErasedStateE"(ptr noundef %0) #6 {
  %2 = alloca ptr, align 8
  store ptr %0, ptr %2, align 8, !tbaa !1079
  %3 = load ptr, ptr %2, align 8, !tbaa !1079
  %4 = call noundef ptr @"_ZSt7launderIZZN9grpc_core12_GLOBAL__N_19PickFirst14SubchannelList14SubchannelData26RequestConnectionWithTimerEvEN3$_0clEvEUlvE_EPT_S8_"(ptr noundef %3) #3
  ret ptr %4
}

; Function Attrs: mustprogress nounwind uwtable
define internal void @"_ZN4absl12lts_2024072222internal_any_invocable22LocalManagerNontrivialIZZN9grpc_core12_GLOBAL__N_19PickFirst14SubchannelList14SubchannelData26RequestConnectionWithTimerEvEN3$_0clEvEUlvE_EEvNS1_14FunctionToCallEPNS1_15TypeErasedStateESC_"(i1 noundef zeroext %0, ptr noundef %1, ptr noundef %2) #6 {
  %4 = alloca i8, align 1
  %5 = alloca ptr, align 8
  %6 = alloca ptr, align 8
  %7 = alloca ptr, align 8
  %8 = alloca i32, align 4
  %9 = zext i1 %0 to i8
  store i8 %9, ptr %4, align 1, !tbaa !1125
  store ptr %1, ptr %5, align 8, !tbaa !1079
  store ptr %2, ptr %6, align 8, !tbaa !1079
  call void @llvm.lifetime.start.p0(i64 8, ptr %7) #3
  %10 = load ptr, ptr %5, align 8, !tbaa !1079
  %11 = call noundef nonnull align 8 dereferenceable(8) ptr @"_ZN4absl12lts_2024072222internal_any_invocable20ObjectInLocalStorageIZZN9grpc_core12_GLOBAL__N_19PickFirst14SubchannelList14SubchannelData26RequestConnectionWithTimerEvEN3$_0clEvEUlvE_EERT_PNS1_15TypeErasedStateE"(ptr noundef %10)
  store ptr %11, ptr %7, align 8, !tbaa !53
  %12 = load i8, ptr %4, align 1, !tbaa !1125, !range !13, !noundef !14
  %13 = trunc i8 %12 to i1
  switch i1 %13, label %19 [
    i1 false, label %14
    i1 true, label %17
  ]

14:                                               ; preds = %3
  %15 = load ptr, ptr %6, align 8, !tbaa !1079
  %16 = load ptr, ptr %7, align 8, !tbaa !53
  call void @"_ZZZN9grpc_core12_GLOBAL__N_19PickFirst14SubchannelList14SubchannelData26RequestConnectionWithTimerEvEN3$_0clEvENUlvE_C2EOS5_"(ptr noundef nonnull align 8 dereferenceable(8) %15, ptr noundef nonnull align 8 dereferenceable(8) %16) #3
  br label %17

17:                                               ; preds = %3, %14
  %18 = load ptr, ptr %7, align 8, !tbaa !53
  call void @"_ZZZN9grpc_core12_GLOBAL__N_19PickFirst14SubchannelList14SubchannelData26RequestConnectionWithTimerEvEN3$_0clEvENUlvE_D2Ev"(ptr noundef nonnull align 8 dereferenceable(8) %18) #3
  store i32 1, ptr %8, align 4
  br label %23

19:                                               ; preds = %3
  br label %20

20:                                               ; preds = %19
  unreachable

21:                                               ; No predecessors!
  br label %22

22:                                               ; preds = %21
  store i32 0, ptr %8, align 4
  br label %23

23:                                               ; preds = %22, %17
  call void @llvm.lifetime.end.p0(i64 8, ptr %7) #3
  %24 = load i32, ptr %8, align 4
  switch i32 %24, label %26 [
    i32 0, label %25
    i32 1, label %25
  ]

25:                                               ; preds = %23, %23
  ret void

26:                                               ; preds = %23
  unreachable
}